Certificate:
    Data:
        Version: 3 (0x2)
        Serial Number: 1982 (0x7be)
        Signature Algorithm: sha256WithRSAEncryption
        Issuer: C=US, ST=Washington, L=Seattle, O=getaCert - www.getacert.com
        Validity
            Not Before: Jan 10 14:48:05 2017 GMT
            Not After : Jan 11 14:48:05 2027 GMT
        Subject: C=ES, CN=PracticaBTSA
        Subject Public Key Info:
            Public Key Algorithm: dsaEncryption
            DSA Public Key:
                pub: 
                    3c:2d:96:01:b3:38:e4:8b:66:61:16:be:58:a4:0b:
                    d7:1b:1c:1f:af:e9:0f:12:3e:c3:d9:e5:ee:2d:ba:
                    94:ad:01:fa:40:18:1a:0f:0d:95:d6:bf:0f:f1:d9:
                    12:61:18:7e:c9:7e:22:c5:3f:26:c8:a6:9c:ce:48:
                    cc:2e:39:20:33:12:c2:04:f6:9b:84:eb:37:0e:4b:
                    94:eb:b6:0c:88:04:6a:fb:5e:15:42:66:63:ce:39:
                    41:23:c5:e6:3e:50:0a:d6:80:c7:44:f6:ff:12:d2:
                    cb:7e:a6:ae:fc:47:bc:ef:a2:6f:f6:c8:a9:f9:4a:
                    a4:13:61:cc:d7:93:f7:f2
                P:   
                    00:a0:41:a1:63:1d:9c:4c:62:58:f6:c1:ec:d0:1e:
                    55:37:fb:f3:2a:7b:fa:97:bd:82:15:62:22:28:5e:
                    3d:f0:7d:27:a5:17:a7:bb:0f:c8:f6:7d:95:81:39:
                    03:2b:00:f0:b2:4a:33:0f:61:5c:81:10:e6:d1:fe:
                    6a:09:1b:84:43:47:5b:cf:60:a7:83:6a:b7:18:79:
                    9e:28:fb:5b:23:af:42:92:36:bd:1b:b8:37:7e:41:
                    04:40:71:7f:50:04:ac:38:d0:fb:01:1c:c4:f3:92:
                    19:83:99:7c:0e:ad:2f:da:dc:32:ee:3b:5c:a0:d7:
                    37:ec:f0:bc:10:f2:09:5a:ff
                Q:   
                    00:f9:c7:9c:5a:42:66:66:f7:e3:46:d7:78:99:d9:
                    6b:0b:2d:91:dd:79
                G:   
                    21:3d:dc:e7:5c:e0:23:45:82:6e:ee:78:cb:93:5e:
                    ec:bf:7c:71:2e:8c:61:37:fe:43:db:c9:1d:3d:a8:
                    14:e9:ad:90:47:06:fe:2b:6c:a9:f0:2e:e4:d7:71:
                    fc:7d:04:2a:52:e1:93:82:ee:d9:e4:11:46:74:2d:
                    1a:a0:19:16:62:74:44:2f:4d:83:42:ac:50:fc:f4:
                    11:9d:55:f1:94:7b:1a:fb:b0:9c:03:a8:7c:3a:a9:
                    26:ad:fa:97:fa:4b:4c:09:46:ed:93:5b:d1:38:8d:
                    8d:ba:a1:c1:d1:ce:48:a8:99:5f:bc:04:1e:5b:b4:
                    ec:21:72:53:03:0c:a8:3c
        X509v3 extensions:
            X509v3 Basic Constraints: 
                CA:FALSE
            Netscape Cert Type: 
                SSL Client, SSL Server, S/MIME, Object Signing
            X509v3 Key Usage: 
                Key Encipherment
    Signature Algorithm: sha256WithRSAEncryption
        6c:26:be:4e:d3:8b:c7:6d:a9:5d:f9:fd:13:08:ab:05:74:21:
        60:79:35:9d:c0:df:db:aa:f0:46:c8:2a:f4:ef:3f:5e:82:87:
        bf:bb:a5:da:93:e0:60:e0:5e:d5:91:95:94:6c:93:9f:3c:25:
        4e:03:50:5c:5d:fe:2b:40:76:c9:42:39:c7:d4:41:ca:65:76:
        4a:dd:7f:07:27:f3:d0:01:39:cb:cf:8b:27:72:c1:e2:b3:58:
        45:aa:55:67:4c:9e:a3:3e:6c:6b:19:2f:ff:3b:33:f5:f3:d8:
        12:7d:45:17:68:c8:d2:b9:c7:2a:5d:18:08:a0:cc:9a:c4:36:
        60:0b:a8:9d:ed:5b:26:26:5c:32:1f:3c:44:d6:79:b6:bf:17:
        75:6e:83:3d:d4:f6:d3:33:e3:b1:d0:da:8c:89:75:79:40:5a:
        6a:0e:24:5d:2e:c7:69:67:07:e5:f5:56:6c:92:e4:41:6e:62:
        71:43:bf:ed:aa:65:a7:e1:5e:fc:69:ee:00:d4:43:fd:a8:15:
        db:07:d4:de:b8:52:2f:bf:03:59:23:8d:e7:ac:f7:a9:24:8a:
        2b:83:aa:6b:76:a9:0f:12:44:90:b8:6b:70:5a:f8:84:c8:80:
        cf:bb:46:9b:da:b5:ca:c7:a7:8c:a8:5a:be:13:3a:59:7e:b1:
        7d:bb:46:fd
-----BEGIN CERTIFICATE-----
MIIDuzCCAqOgAwIBAgICB74wDQYJKoZIhvcNAQELBQAwWjELMAkGA1UEBhMCVVMx
EzARBgNVBAgTCldhc2hpbmd0b24xEDAOBgNVBAcTB1NlYXR0bGUxJDAiBgNVBAoT
G2dldGFDZXJ0IC0gd3d3LmdldGFjZXJ0LmNvbTAeFw0xNzAxMTAxNDQ4MDVaFw0y
NzAxMTExNDQ4MDVaMCQxCzAJBgNVBAYTAkVTMRUwEwYDVQQDDAxQcmFjdGljYUJU
U0EwggG2MIIBKwYHKoZIzjgEATCCAR4CgYEAoEGhYx2cTGJY9sHs0B5VN/vzKnv6
l72CFWIiKF498H0npRenuw/I9n2VgTkDKwDwskozD2FcgRDm0f5qCRuEQ0dbz2Cn
g2q3GHmeKPtbI69Ckja9G7g3fkEEQHF/UASsOND7ARzE85IZg5l8Dq0v2twy7jtc
oNc37PC8EPIJWv8CFQD5x5xaQmZm9+NG13iZ2WsLLZHdeQKBgCE93Odc4CNFgm7u
eMuTXuy/fHEujGE3/kPbyR09qBTprZBHBv4rbKnwLuTXcfx9BCpS4ZOC7tnkEUZ0
LRqgGRZidEQvTYNCrFD89BGdVfGUexr7sJwDqHw6qSat+pf6S0wJRu2TW9E4jY26
ocHRzkiomV+8BB5btOwhclMDDKg8A4GEAAKBgDwtlgGzOOSLZmEWvlikC9cbHB+v
6Q8SPsPZ5e4tupStAfpAGBoPDZXWvw/x2RJhGH7JfiLFPybIppzOSMwuOSAzEsIE
9puE6zcOS5TrtgyIBGr7XhVCZmPOOUEjxeY+UArWgMdE9v8S0st+pq78R7zvom/2
yKn5SqQTYczXk/fyoy0wKzAJBgNVHRMEAjAAMBEGCWCGSAGG+EIBAQQEAwIE8DAL
BgNVHQ8EBAMCBSAwDQYJKoZIhvcNAQELBQADggEBAGwmvk7Ti8dtqV35/RMIqwV0
IWB5NZ3A39uq8EbIKvTvP16Ch7+7pdqT4GDgXtWRlZRsk588JU4DUFxd/itAdslC
OcfUQcpldkrdfwcn89ABOcvPiydyweKzWEWqVWdMnqM+bGsZL/87M/Xz2BJ9RRdo
yNK5xypdGAigzJrENmALqJ3tWyYmXDIfPETWeba/F3Vugz3U9tMz47HQ2oyJdXlA
WmoOJF0ux2lnB+X1VmyS5EFuYnFDv+2qZafhXvxp7gDUQ/2oFdsH1N64Ui+/A1kj
jees96kkiiuDqmt2qQ8SRJC4a3Ba+ITIgM+7RpvatcrHp4yoWr4TOll+sX27Rv0=
-----END CERTIFICATE-----
